target datalayout = "e-m:e-p270:32:32-p271:32:32-p272:64:64-i64:64-i128:128-f80:128-n8:16:32:64-S128"
target triple = "x86_64-pc-linux-gnu"

%struct.cmsysProcess_s = type { ptr, i32, [3 x i32], [3 x i32], i32, [1024 x i8], ptr, i32, double, ptr, i32, i32, i32, i32, i32, %struct.kwsysProcessTime_s, %struct.kwsysProcessTime_s, i32, i32, %struct.fd_set, i32, i32, i32, [1025 x i8], ptr, ptr, ptr, ptr, ptr, i32, i32, i32, [2 x i32], [2 x i32], [2 x i32], i32, ptr }
%struct.kwsysProcessTime_s = type { i64, i64 }
%struct.fd_set = type { [16 x i64] }
%struct.kwsysProcessResults_s = type { i32, i32, i32, i32, [1025 x i8] }

@.str.3 = private unnamed_addr constant [13 x i8] c"No exception\00", align 1
@.str.4 = private unnamed_addr constant [87 x i8] c"GetExceptionString called with NULL process management structure or index out of bound\00", align 1

; Function Attrs: nounwind uwtable
define dso_local ptr @cmsysProcess_GetExceptionStringByIndex(ptr noundef %0, i32 noundef %1) #0 {
  %3 = alloca ptr, align 8
  %4 = alloca ptr, align 8
  %5 = alloca i32, align 4
  store ptr %0, ptr %4, align 8, !tbaa !4
  store i32 %1, ptr %5, align 4, !tbaa !20
  %6 = load ptr, ptr %4, align 8, !tbaa !4
  %7 = icmp ne ptr %6, null
  br i1 %7, label %8, label %17

8:                                                ; preds = %2
  %9 = load i32, ptr %5, align 4, !tbaa !20
  %10 = load ptr, ptr %4, align 8, !tbaa !4
  %11 = getelementptr inbounds nuw %struct.cmsysProcess_s, ptr %10, i32 0, i32 1
  %12 = load volatile i32, ptr %11, align 8, !tbaa !32
  %13 = icmp sge i32 %9, %12
  br i1 %13, label %17, label %14

14:                                               ; preds = %8
  %15 = load i32, ptr %5, align 4, !tbaa !20
  %16 = icmp slt i32 %15, 0
  br i1 %16, label %17, label %18

17:                                               ; preds = %14, %8, %2
  store ptr @.str.4, ptr %3, align 8
  br label %38

18:                                               ; preds = %14
  %19 = load ptr, ptr %4, align 8, !tbaa !4
  %20 = getelementptr inbounds nuw %struct.cmsysProcess_s, ptr %19, i32 0, i32 24
  %21 = load ptr, ptr %20, align 8, !tbaa !24
  %22 = load i32, ptr %5, align 4, !tbaa !20
  %23 = sext i32 %22 to i64
  %24 = getelementptr inbounds %struct.kwsysProcessResults_s, ptr %21, i64 %23
  %25 = getelementptr inbounds nuw %struct.kwsysProcessResults_s, ptr %24, i32 0, i32 0
  %26 = load i32, ptr %25, align 4, !tbaa !35
  %27 = icmp eq i32 %26, 2
  br i1 %27, label %28, label %37

28:                                               ; preds = %18
  %29 = load ptr, ptr %4, align 8, !tbaa !4
  %30 = getelementptr inbounds nuw %struct.cmsysProcess_s, ptr %29, i32 0, i32 24
  %31 = load ptr, ptr %30, align 8, !tbaa !24
  %32 = load i32, ptr %5, align 4, !tbaa !20
  %33 = sext i32 %32 to i64
  %34 = getelementptr inbounds %struct.kwsysProcessResults_s, ptr %31, i64 %33
  %35 = getelementptr inbounds nuw %struct.kwsysProcessResults_s, ptr %34, i32 0, i32 4
  %36 = getelementptr inbounds [1025 x i8], ptr %35, i64 0, i64 0
  store ptr %36, ptr %3, align 8
  br label %38

37:                                               ; preds = %18
  store ptr @.str.3, ptr %3, align 8
  br label %38

38:                                               ; preds = %37, %28, %17
  %39 = load ptr, ptr %3, align 8
  ret ptr %39
}